target datalayout = "e-m:e-p270:32:32-p271:32:32-p272:64:64-i64:64-i128:128-f80:128-n8:16:32:64-S128"
target triple = "x86_64-pc-linux-gnu"

; Function Attrs: mustprogress nounwind uwtable
define internal noundef zeroext i1 @_ZN4llvm6objectL14supportsWasm32Em(i64 noundef %0) #0 {
  %2 = alloca i1, align 1
  %3 = alloca i64, align 8
  store i64 %0, ptr %3, align 8
  %4 = load i64, ptr %3, align 8
  switch i64 %4, label %6 [
    i64 0, label %5
    i64 1, label %5
    i64 2, label %5
    i64 3, label %5
    i64 4, label %5
    i64 5, label %5
    i64 6, label %5
    i64 7, label %5
    i64 8, label %5
    i64 9, label %5
    i64 10, label %5
    i64 13, label %5
    i64 20, label %5
    i64 23, label %5
  ]

5:                                                ; preds = %1, %1, %1, %1, %1, %1, %1, %1, %1, %1, %1, %1, %1, %1
  store i1 true, ptr %2, align 1
  br label %7

6:                                                ; preds = %1
  store i1 false, ptr %2, align 1
  br label %7

7:                                                ; preds = %6, %5
  %8 = load i1, ptr %2, align 1
  ret i1 %8
}

; Function Attrs: mustprogress nounwind uwtable
define internal noundef zeroext i1 @_ZN4llvm6objectL14supportsWasm64Em(i64 noundef %0) #0 {
  %2 = alloca i1, align 1
  %3 = alloca i64, align 8
  store i64 %0, ptr %3, align 8
  %4 = load i64, ptr %3, align 8
  switch i64 %4, label %6 [
    i64 14, label %5
    i64 15, label %5
    i64 16, label %5
    i64 18, label %5
    i64 19, label %5
    i64 22, label %5
  ]

5:                                                ; preds = %1, %1, %1, %1, %1, %1
  store i1 true, ptr %2, align 1
  br label %9

6:                                                ; preds = %1
  %7 = load i64, ptr %3, align 8
  %8 = call noundef zeroext i1 @_ZN4llvm6objectL14supportsWasm32Em(i64 noundef %7)
  store i1 %8, ptr %2, align 1
  br label %9

9:                                                ; preds = %6, %5
  %10 = load i1, ptr %2, align 1
  ret i1 %10
}