; Function Attrs: mustprogress nofree norecurse nosync nounwind willreturn memory(none) uwtable
define internal noundef zeroext i1 @_ZN4llvm6objectL14supportsWasm64Em(i64 noundef %0) #1 {
_ZN4llvm6objectL14supportsWasm32Em.exit:
  %1 = icmp ult i64 %0, 24
  %switch.cast = trunc i64 %0 to i24
  %switch.downshift = lshr i24 -2234369, %switch.cast
  %switch.masked = trunc i24 %switch.downshift to i1
  %.0 = select i1 %1, i1 %switch.masked, i1 false
  ret i1 %.0
}